target datalayout = "e-m:e-p270:32:32-p271:32:32-p272:64:64-i64:64-i128:128-f80:128-n8:16:32:64-S128"
target triple = "x86_64-pc-linux-gnu"

%class.dtTileCache = type { i32, i32, ptr, ptr, ptr, i32, i32, %struct.dtTileCacheParams, ptr, ptr, ptr, ptr, ptr, [64 x %"struct.dtTileCache::ObstacleRequest"], i32, [64 x i32], i32 }
%struct.dtTileCacheParams = type { [3 x float], float, float, i32, i32, float, float, float, float, i32, i32 }
%"struct.dtTileCache::ObstacleRequest" = type { i32, i32 }
%struct.dtTileCacheObstacle = type { %union.anon, [8 x i32], [8 x i32], i16, i8, i8, i8, i8, ptr }
%union.anon = type { %struct.dtObstacleOrientedBox }
%struct.dtObstacleOrientedBox = type { [3 x float], [3 x float], [2 x float] }
%struct.dtObstacleBox = type { [3 x float], [3 x float] }

; Function Attrs: mustprogress nounwind uwtable
define linkonce_odr noundef i32 @_ZNK11dtTileCache16encodeObstacleIdEjj(ptr noundef nonnull align 8 dereferenceable(912) %0, i32 noundef %1, i32 noundef %2) #2 comdat align 2 {
  %4 = alloca ptr, align 8
  %5 = alloca i32, align 4
  %6 = alloca i32, align 4
  store ptr %0, ptr %4, align 8
  store i32 %1, ptr %5, align 4
  store i32 %2, ptr %6, align 4
  %7 = load i32, ptr %5, align 4
  %8 = shl i32 %7, 16
  %9 = load i32, ptr %6, align 4
  %10 = or i32 %8, %9
  ret i32 %10
}

; Function Attrs: mustprogress uwtable
define noundef i32 @_ZNK11dtTileCache14getObstacleRefEPK19dtTileCacheObstacle(ptr noundef nonnull align 8 dereferenceable(912) %0, ptr noundef %1) #0 align 2 {
  %3 = alloca i32, align 4
  %4 = alloca ptr, align 8
  %5 = alloca ptr, align 8
  %6 = alloca i32, align 4
  store ptr %0, ptr %4, align 8
  store ptr %1, ptr %5, align 8
  %7 = load ptr, ptr %4, align 8
  %8 = load ptr, ptr %5, align 8
  %9 = icmp ne ptr %8, null
  br i1 %9, label %11, label %10

10:                                               ; preds = %2
  store i32 0, ptr %3, align 4
  br label %26

11:                                               ; preds = %2
  %12 = load ptr, ptr %5, align 8
  %13 = getelementptr inbounds %class.dtTileCache, ptr %7, i32 0, i32 11
  %14 = load ptr, ptr %13, align 8
  %15 = ptrtoint ptr %12 to i64
  %16 = ptrtoint ptr %14 to i64
  %17 = sub i64 %15, %16
  %18 = sdiv exact i64 %17, 112
  %19 = trunc i64 %18 to i32
  store i32 %19, ptr %6, align 4
  %20 = load ptr, ptr %5, align 8
  %21 = getelementptr inbounds %struct.dtTileCacheObstacle, ptr %20, i32 0, i32 3
  %22 = load i16, ptr %21, align 8
  %23 = zext i16 %22 to i32
  %24 = load i32, ptr %6, align 4
  %25 = call noundef i32 @_ZNK11dtTileCache16encodeObstacleIdEjj(ptr noundef nonnull align 8 dereferenceable(912) %7, i32 noundef %23, i32 noundef %24)
  store i32 %25, ptr %3, align 4
  br label %26

26:                                               ; preds = %11, %10
  %27 = load i32, ptr %3, align 4
  ret i32 %27
}

; Function Attrs: mustprogress nounwind uwtable
define linkonce_odr void @_Z7dtVcopyPfPKf(ptr noundef %0, ptr noundef %1) #2 comdat {
  %3 = alloca ptr, align 8
  %4 = alloca ptr, align 8
  store ptr %0, ptr %3, align 8
  store ptr %1, ptr %4, align 8
  %5 = load ptr, ptr %4, align 8
  %6 = getelementptr inbounds float, ptr %5, i64 0
  %7 = load float, ptr %6, align 4
  %8 = load ptr, ptr %3, align 8
  %9 = getelementptr inbounds float, ptr %8, i64 0
  store float %7, ptr %9, align 4
  %10 = load ptr, ptr %4, align 8
  %11 = getelementptr inbounds float, ptr %10, i64 1
  %12 = load float, ptr %11, align 4
  %13 = load ptr, ptr %3, align 8
  %14 = getelementptr inbounds float, ptr %13, i64 1
  store float %12, ptr %14, align 4
  %15 = load ptr, ptr %4, align 8
  %16 = getelementptr inbounds float, ptr %15, i64 2
  %17 = load float, ptr %16, align 4
  %18 = load ptr, ptr %3, align 8
  %19 = getelementptr inbounds float, ptr %18, i64 2
  store float %17, ptr %19, align 4
  ret void
}

; Function Attrs: mustprogress uwtable
define noundef i32 @_ZN11dtTileCache14addBoxObstacleEPKfS1_Pj(ptr noundef nonnull align 8 dereferenceable(912) %0, ptr noundef %1, ptr noundef %2, ptr noundef %3) #0 align 2 {
  %5 = alloca i32, align 4
  %6 = alloca ptr, align 8
  %7 = alloca ptr, align 8
  %8 = alloca ptr, align 8
  %9 = alloca ptr, align 8
  %10 = alloca ptr, align 8
  %11 = alloca i16, align 2
  %12 = alloca ptr, align 8
  store ptr %0, ptr %6, align 8
  store ptr %1, ptr %7, align 8
  store ptr %2, ptr %8, align 8
  store ptr %3, ptr %9, align 8
  %13 = load ptr, ptr %6, align 8
  %14 = getelementptr inbounds %class.dtTileCache, ptr %13, i32 0, i32 14
  %15 = load i32, ptr %14, align 8
  %16 = icmp sge i32 %15, 64
  br i1 %16, label %17, label %18

17:                                               ; preds = %4
  store i32 -2147483632, ptr %5, align 4
  br label %78

18:                                               ; preds = %4
  store ptr null, ptr %10, align 8
  %19 = getelementptr inbounds %class.dtTileCache, ptr %13, i32 0, i32 12
  %20 = load ptr, ptr %19, align 8
  %21 = icmp ne ptr %20, null
  br i1 %21, label %22, label %31

22:                                               ; preds = %18
  %23 = getelementptr inbounds %class.dtTileCache, ptr %13, i32 0, i32 12
  %24 = load ptr, ptr %23, align 8
  store ptr %24, ptr %10, align 8
  %25 = load ptr, ptr %10, align 8
  %26 = getelementptr inbounds %struct.dtTileCacheObstacle, ptr %25, i32 0, i32 8
  %27 = load ptr, ptr %26, align 8
  %28 = getelementptr inbounds %class.dtTileCache, ptr %13, i32 0, i32 12
  store ptr %27, ptr %28, align 8
  %29 = load ptr, ptr %10, align 8
  %30 = getelementptr inbounds %struct.dtTileCacheObstacle, ptr %29, i32 0, i32 8
  store ptr null, ptr %30, align 8
  br label %31

31:                                               ; preds = %22, %18
  %32 = load ptr, ptr %10, align 8
  %33 = icmp ne ptr %32, null
  br i1 %33, label %35, label %34

34:                                               ; preds = %31
  store i32 -2147483644, ptr %5, align 4
  br label %78

35:                                               ; preds = %31
  %36 = load ptr, ptr %10, align 8
  %37 = getelementptr inbounds %struct.dtTileCacheObstacle, ptr %36, i32 0, i32 3
  %38 = load i16, ptr %37, align 8
  store i16 %38, ptr %11, align 2
  %39 = load ptr, ptr %10, align 8
  call void @llvm.memset.p0.i64(ptr align 8 %39, i8 0, i64 112, i1 false)
  %40 = load i16, ptr %11, align 2
  %41 = load ptr, ptr %10, align 8
  %42 = getelementptr inbounds %struct.dtTileCacheObstacle, ptr %41, i32 0, i32 3
  store i16 %40, ptr %42, align 8
  %43 = load ptr, ptr %10, align 8
  %44 = getelementptr inbounds %struct.dtTileCacheObstacle, ptr %43, i32 0, i32 5
  store i8 1, ptr %44, align 1
  %45 = load ptr, ptr %10, align 8
  %46 = getelementptr inbounds %struct.dtTileCacheObstacle, ptr %45, i32 0, i32 4
  store i8 1, ptr %46, align 2
  %47 = load ptr, ptr %10, align 8
  %48 = getelementptr inbounds %struct.dtTileCacheObstacle, ptr %47, i32 0, i32 0
  %49 = getelementptr inbounds %struct.dtObstacleBox, ptr %48, i32 0, i32 0
  %50 = getelementptr inbounds [3 x float], ptr %49, i64 0, i64 0
  %51 = load ptr, ptr %7, align 8
  call void @_Z7dtVcopyPfPKf(ptr noundef %50, ptr noundef %51)
  %52 = load ptr, ptr %10, align 8
  %53 = getelementptr inbounds %struct.dtTileCacheObstacle, ptr %52, i32 0, i32 0
  %54 = getelementptr inbounds %struct.dtObstacleBox, ptr %53, i32 0, i32 1
  %55 = getelementptr inbounds [3 x float], ptr %54, i64 0, i64 0
  %56 = load ptr, ptr %8, align 8
  call void @_Z7dtVcopyPfPKf(ptr noundef %55, ptr noundef %56)
  %57 = getelementptr inbounds %class.dtTileCache, ptr %13, i32 0, i32 13
  %58 = getelementptr inbounds %class.dtTileCache, ptr %13, i32 0, i32 14
  %59 = load i32, ptr %58, align 8
  %60 = add nsw i32 %59, 1
  store i32 %60, ptr %58, align 8
  %61 = sext i32 %59 to i64
  %62 = getelementptr inbounds [64 x %"struct.dtTileCache::ObstacleRequest"], ptr %57, i64 0, i64 %61
  store ptr %62, ptr %12, align 8
  %63 = load ptr, ptr %12, align 8
  call void @llvm.memset.p0.i64(ptr align 4 %63, i8 0, i64 8, i1 false)
  %64 = load ptr, ptr %12, align 8
  %65 = getelementptr inbounds %"struct.dtTileCache::ObstacleRequest", ptr %64, i32 0, i32 0
  store i32 0, ptr %65, align 4
  %66 = load ptr, ptr %10, align 8
  %67 = call noundef i32 @_ZNK11dtTileCache14getObstacleRefEPK19dtTileCacheObstacle(ptr noundef nonnull align 8 dereferenceable(912) %13, ptr noundef %66)
  %68 = load ptr, ptr %12, align 8
  %69 = getelementptr inbounds %"struct.dtTileCache::ObstacleRequest", ptr %68, i32 0, i32 1
  store i32 %67, ptr %69, align 4
  %70 = load ptr, ptr %9, align 8
  %71 = icmp ne ptr %70, null
  br i1 %71, label %72, label %77

72:                                               ; preds = %35
  %73 = load ptr, ptr %12, align 8
  %74 = getelementptr inbounds %"struct.dtTileCache::ObstacleRequest", ptr %73, i32 0, i32 1
  %75 = load i32, ptr %74, align 4
  %76 = load ptr, ptr %9, align 8
  store i32 %75, ptr %76, align 4
  br label %77

77:                                               ; preds = %72, %35
  store i32 1073741824, ptr %5, align 4
  br label %78

78:                                               ; preds = %77, %34, %17
  %79 = load i32, ptr %5, align 4
  ret i32 %79
}