; Function Attrs: mustprogress nofree norecurse nosync nounwind willreturn memory(readwrite, inaccessiblemem: none) uwtable
define noundef range(i32 1073741824, -2147483631) i32 @_ZN11dtTileCache14addBoxObstacleEPKfS1_Pj(ptr noundef nonnull align 8 captures(none) dereferenceable(912) %0, ptr noundef readonly captures(none) %1, ptr noundef readonly captures(none) %2, ptr noundef writeonly %3) local_unnamed_addr #15 align 2 {
  %5 = getelementptr inbounds nuw i8, ptr %0, i64 648
  %6 = load i32, ptr %5, align 8
  %7 = icmp sgt i32 %6, 63
  br i1 %7, label %.thread, label %8

8:                                                ; preds = %4
  %9 = getelementptr inbounds nuw i8, ptr %0, i64 128
  %10 = load ptr, ptr %9, align 8
  %.not = icmp eq ptr %10, null
  br i1 %.not, label %.thread, label %_ZNK11dtTileCache14getObstacleRefEPK19dtTileCacheObstacle.exit

_ZNK11dtTileCache14getObstacleRefEPK19dtTileCacheObstacle.exit: ; preds = %8
  %11 = getelementptr inbounds nuw i8, ptr %10, i64 104
  %12 = load ptr, ptr %11, align 8
  store ptr %12, ptr %9, align 8
  %13 = getelementptr inbounds nuw i8, ptr %10, i64 96
  %14 = load i16, ptr %13, align 8
  tail call void @llvm.memset.p0.i64(ptr noundef nonnull align 8 dereferenceable(112) %10, i8 0, i64 112, i1 false)
  store i16 %14, ptr %13, align 8
  %15 = getelementptr inbounds nuw i8, ptr %10, i64 99
  store i8 1, ptr %15, align 1
  %16 = getelementptr inbounds nuw i8, ptr %10, i64 98
  store i8 1, ptr %16, align 2
  %17 = load float, ptr %1, align 4
  store float %17, ptr %10, align 4
  %18 = getelementptr inbounds nuw i8, ptr %1, i64 4
  %19 = load float, ptr %18, align 4
  %20 = getelementptr inbounds nuw i8, ptr %10, i64 4
  store float %19, ptr %20, align 4
  %21 = getelementptr inbounds nuw i8, ptr %1, i64 8
  %22 = load float, ptr %21, align 4
  %23 = getelementptr inbounds nuw i8, ptr %10, i64 8
  store float %22, ptr %23, align 4
  %24 = getelementptr inbounds nuw i8, ptr %10, i64 12
  %25 = load float, ptr %2, align 4
  store float %25, ptr %24, align 4
  %26 = getelementptr inbounds nuw i8, ptr %2, i64 4
  %27 = load float, ptr %26, align 4
  %28 = getelementptr inbounds nuw i8, ptr %10, i64 16
  store float %27, ptr %28, align 4
  %29 = getelementptr inbounds nuw i8, ptr %2, i64 8
  %30 = load float, ptr %29, align 4
  %31 = getelementptr inbounds nuw i8, ptr %10, i64 20
  store float %30, ptr %31, align 4
  %32 = getelementptr inbounds nuw i8, ptr %0, i64 136
  %33 = load i32, ptr %5, align 8
  %34 = add nsw i32 %33, 1
  store i32 %34, ptr %5, align 8
  %35 = sext i32 %33 to i64
  %36 = getelementptr inbounds [64 x %"struct.dtTileCache::ObstacleRequest"], ptr %32, i64 0, i64 %35
  store i64 0, ptr %36, align 8
  %37 = getelementptr inbounds nuw i8, ptr %0, i64 120
  %38 = load ptr, ptr %37, align 8
  %39 = ptrtoint ptr %10 to i64
  %40 = ptrtoint ptr %38 to i64
  %41 = sub i64 %39, %40
  %42 = sdiv exact i64 %41, 112
  %43 = trunc i64 %42 to i32
  %44 = load i16, ptr %13, align 8
  %45 = zext i16 %44 to i32
  %46 = shl nuw i32 %45, 16
  %47 = or i32 %46, %43
  %48 = getelementptr inbounds nuw i8, ptr %36, i64 4
  store i32 %47, ptr %48, align 4
  %.not25 = icmp eq ptr %3, null
  br i1 %.not25, label %.thread, label %49

49:                                               ; preds = %_ZNK11dtTileCache14getObstacleRefEPK19dtTileCacheObstacle.exit
  store i32 %47, ptr %3, align 4
  br label %.thread

.thread:                                          ; preds = %8, %_ZNK11dtTileCache14getObstacleRefEPK19dtTileCacheObstacle.exit, %49, %4
  %.0 = phi i32 [ -2147483632, %4 ], [ 1073741824, %49 ], [ 1073741824, %_ZNK11dtTileCache14getObstacleRefEPK19dtTileCacheObstacle.exit ], [ -2147483644, %8 ]
  ret i32 %.0
}